; Function Attrs: nounwind uwtable
define void @Ga2_ManCollectLeaves_rec(ptr noundef readonly captures(none) %0, ptr noundef %1, ptr noundef captures(none) %2, i32 noundef %3) local_unnamed_addr #4 {
  %5 = load i64, ptr %1, align 4
  %6 = icmp sgt i64 %5, -1
  %7 = icmp ne i32 %3, 0
  %or.cond14 = or i1 %7, %6
  br i1 %or.cond14, label %tailrecurse, label %tailrecurse._crit_edge

tailrecurse._crit_edge:                           ; preds = %tailrecurse, %4
  %.tr11.lcssa = phi ptr [ %1, %4 ], [ %61, %tailrecurse ]
  %8 = getelementptr i8, ptr %0, i64 32
  %.val = load ptr, ptr %8, align 8
  %9 = ptrtoint ptr %.tr11.lcssa to i64
  %10 = ptrtoint ptr %.val to i64
  %11 = sub i64 %9, %10
  %12 = sdiv exact i64 %11, 12
  %13 = trunc i64 %12 to i32
  %14 = getelementptr inbounds nuw i8, ptr %2, i64 4
  %15 = load i32, ptr %14, align 4
  %16 = icmp sgt i32 %15, 0
  br i1 %16, label %.lr.ph.i, label %._crit_edge.i

.lr.ph.i:                                         ; preds = %tailrecurse._crit_edge
  %17 = getelementptr inbounds nuw i8, ptr %2, i64 8
  %18 = load ptr, ptr %17, align 8
  %wide.trip.count.i = zext nneg i32 %15 to i64
  br label %20

19:                                               ; preds = %20
  %indvars.iv.next.i = add nuw nsw i64 %indvars.iv.i, 1
  %exitcond.not.i = icmp eq i64 %indvars.iv.next.i, %wide.trip.count.i
  br i1 %exitcond.not.i, label %._crit_edge.i, label %20, !llvm.loop !8

20:                                               ; preds = %19, %.lr.ph.i
  %indvars.iv.i = phi i64 [ 0, %.lr.ph.i ], [ %indvars.iv.next.i, %19 ]
  %21 = getelementptr inbounds nuw i32, ptr %18, i64 %indvars.iv.i
  %22 = load i32, ptr %21, align 4
  %23 = icmp eq i32 %22, %13
  br i1 %23, label %Vec_IntPushUnique.exit, label %19

._crit_edge.i:                                    ; preds = %19, %tailrecurse._crit_edge
  %24 = load i32, ptr %2, align 8
  %25 = icmp eq i32 %15, %24
  br i1 %25, label %26, label %.Vec_IntGrow.exit10_crit_edge.i.i

.Vec_IntGrow.exit10_crit_edge.i.i:                ; preds = %._crit_edge.i
  %.phi.trans.insert.i.i = getelementptr inbounds nuw i8, ptr %2, i64 8
  %.pre.i.i = load ptr, ptr %.phi.trans.insert.i.i, align 8
  br label %Vec_IntPush.exit.i

26:                                               ; preds = %._crit_edge.i
  %27 = icmp slt i32 %15, 16
  br i1 %27, label %28, label %36

28:                                               ; preds = %26
  %29 = getelementptr inbounds nuw i8, ptr %2, i64 8
  %30 = load ptr, ptr %29, align 8
  %.not9.i.i.i = icmp eq ptr %30, null
  br i1 %.not9.i.i.i, label %33, label %31

31:                                               ; preds = %28
  %32 = tail call dereferenceable_or_null(64) ptr @realloc(ptr noundef nonnull %30, i64 noundef 64) #26
  br label %Vec_IntGrow.exit.i.i

33:                                               ; preds = %28
  %34 = tail call noalias dereferenceable_or_null(64) ptr @malloc(i64 noundef 64) #27
  br label %Vec_IntGrow.exit.i.i

Vec_IntGrow.exit.i.i:                             ; preds = %33, %31
  %35 = phi ptr [ %32, %31 ], [ %34, %33 ]
  store ptr %35, ptr %29, align 8
  store i32 16, ptr %2, align 8
  br label %Vec_IntPush.exit.i

36:                                               ; preds = %26
  %37 = shl nuw nsw i32 %15, 1
  %38 = getelementptr inbounds nuw i8, ptr %2, i64 8
  %39 = load ptr, ptr %38, align 8
  %.not9.i9.i.i = icmp eq ptr %39, null
  %40 = zext nneg i32 %37 to i64
  %41 = shl nuw nsw i64 %40, 2
  br i1 %.not9.i9.i.i, label %44, label %42

42:                                               ; preds = %36
  %43 = tail call ptr @realloc(ptr noundef nonnull %39, i64 noundef %41) #26
  br label %46

44:                                               ; preds = %36
  %45 = tail call noalias ptr @malloc(i64 noundef %41) #27
  br label %46

46:                                               ; preds = %44, %42
  %47 = phi ptr [ %43, %42 ], [ %45, %44 ]
  store ptr %47, ptr %38, align 8
  store i32 %37, ptr %2, align 8
  br label %Vec_IntPush.exit.i

Vec_IntPush.exit.i:                               ; preds = %46, %Vec_IntGrow.exit.i.i, %.Vec_IntGrow.exit10_crit_edge.i.i
  %48 = phi ptr [ %.pre.i.i, %.Vec_IntGrow.exit10_crit_edge.i.i ], [ %47, %46 ], [ %35, %Vec_IntGrow.exit.i.i ]
  %49 = load i32, ptr %14, align 4
  %50 = add nsw i32 %49, 1
  store i32 %50, ptr %14, align 4
  %51 = sext i32 %49 to i64
  %52 = getelementptr inbounds i32, ptr %48, i64 %51
  store i32 %13, ptr %52, align 4
  br label %Vec_IntPushUnique.exit

tailrecurse:                                      ; preds = %4, %tailrecurse
  %53 = phi i64 [ %62, %tailrecurse ], [ %5, %4 ]
  %.tr1115 = phi ptr [ %61, %tailrecurse ], [ %1, %4 ]
  %54 = and i64 %53, 536870911
  %55 = sub nsw i64 0, %54
  %56 = getelementptr inbounds %struct.Gia_Obj_t_, ptr %.tr1115, i64 %55
  tail call void @Ga2_ManCollectLeaves_rec(ptr noundef %0, ptr noundef nonnull %56, ptr noundef %2, i32 noundef 0)
  %57 = load i64, ptr %.tr1115, align 4
  %58 = lshr i64 %57, 32
  %59 = and i64 %58, 536870911
  %60 = sub nsw i64 0, %59
  %61 = getelementptr inbounds %struct.Gia_Obj_t_, ptr %.tr1115, i64 %60
  %62 = load i64, ptr %61, align 4
  %63 = icmp sgt i64 %62, -1
  br i1 %63, label %tailrecurse, label %tailrecurse._crit_edge

Vec_IntPushUnique.exit:                           ; preds = %20, %Vec_IntPush.exit.i
  ret void
}